target datalayout = "e-m:e-p270:32:32-p271:32:32-p272:64:64-i64:64-i128:128-f80:128-n8:16:32:64-S128"
target triple = "x86_64-pc-linux-gnu"

%struct.H5O_layout_chunk_t = type { i32, i8, i32, [33 x i32], i32, i32, i64, i64, [33 x i64], [33 x i64], [33 x i64], [33 x i64], %union.anon.1 }
%union.anon.1 = type { %struct.H5O_layout_chunk_earray_t }
%struct.H5O_layout_chunk_earray_t = type { %struct.anon.2, i32, [33 x i32], [33 x i64], [33 x i64] }
%struct.anon.2 = type { i8, i8, i8, i8, i8 }

@H5D_init_g = external global i8, align 1
@H5_libterm_g = external global i8, align 1
@.str.1 = private unnamed_addr constant [102 x i8] c"generated/home/dtcxzyw/WorkSpace/Projects/compilers/llvm-opt-benchmark/bench/hdf5/hdf5/src/H5Dchunk.c\00", align 1
@H5E_DATASET_g = external global i64, align 8
@H5E_BADVALUE_g = external global i64, align 8
@__func__.H5D__chunk_set_info_real = private unnamed_addr constant [25 x i8] c"H5D__chunk_set_info_real\00", align 1
@.str.78 = private unnamed_addr constant [36 x i8] c"number of dimensions cannot be zero\00", align 1
@.str.79 = private unnamed_addr constant [38 x i8] c"dimension size must be > 0, dim = %u \00", align 1

; Function Attrs: nounwind uwtable
define internal i32 @H5D__chunk_set_info_real(ptr noundef %0, i32 noundef %1, ptr noundef %2, ptr noundef %3) #0 {
  %5 = alloca i32, align 4
  %6 = alloca ptr, align 8
  %7 = alloca i32, align 4
  %8 = alloca ptr, align 8
  %9 = alloca ptr, align 8
  %10 = alloca i32, align 4
  %11 = alloca i8, align 1
  %12 = alloca i32, align 4
  %13 = alloca i32, align 4
  store ptr %0, ptr %6, align 8, !tbaa !240
  store i32 %1, ptr %7, align 4, !tbaa !10
  store ptr %2, ptr %8, align 8, !tbaa !152
  store ptr %3, ptr %9, align 8, !tbaa !152
  call void @llvm.lifetime.start.p0(i64 4, ptr %10) #10
  store i32 0, ptr %10, align 4, !tbaa !10
  call void @llvm.lifetime.start.p0(i64 1, ptr %11) #10
  store i8 0, ptr %11, align 1, !tbaa !12
  %14 = load i8, ptr @H5D_init_g, align 1, !tbaa !12, !range !14, !noundef !15
  %15 = trunc i8 %14 to i1
  br i1 %15, label %20, label %16

16:                                               ; preds = %4
  %17 = load i8, ptr @H5_libterm_g, align 1, !tbaa !12, !range !14, !noundef !15
  %18 = trunc i8 %17 to i1
  %19 = xor i1 %18, true
  br label %20

20:                                               ; preds = %16, %4
  %21 = phi i1 [ true, %4 ], [ %19, %16 ]
  %22 = xor i1 %21, true
  %23 = xor i1 %22, true
  %24 = zext i1 %23 to i32
  %25 = sext i32 %24 to i64
  %26 = call i64 @llvm.expect.i64(i64 %25, i64 1)
  %27 = icmp ne i64 %26, 0
  br i1 %27, label %28, label %198

28:                                               ; preds = %20
  %29 = load i32, ptr %7, align 4, !tbaa !10
  %30 = icmp eq i32 %29, 0
  br i1 %30, label %31, label %50

31:                                               ; preds = %28
  br label %32

32:                                               ; preds = %31
  br label %33

33:                                               ; preds = %32
  br label %34

34:                                               ; preds = %33
  %35 = load i64, ptr @H5E_DATASET_g, align 8, !tbaa !24
  %36 = load i64, ptr @H5E_BADVALUE_g, align 8, !tbaa !24
  %37 = call i32 (ptr, ptr, i32, i64, i64, ptr, ...) @H5E_printf_stack(ptr noundef @.str.1, ptr noundef @__func__.H5D__chunk_set_info_real, i32 noundef 681, i64 noundef %35, i64 noundef %36, ptr noundef @.str.78)
  br label %38

38:                                               ; preds = %34
  br label %39

39:                                               ; preds = %38
  store i8 1, ptr %11, align 1, !tbaa !12
  %40 = load i8, ptr %11, align 1, !tbaa !12, !range !14, !noundef !15
  %41 = trunc i8 %40 to i1
  %42 = zext i1 %41 to i8
  store i8 %42, ptr %11, align 1, !tbaa !12
  br label %43

43:                                               ; preds = %39
  br label %44

44:                                               ; preds = %43
  br label %45

45:                                               ; preds = %44
  store i32 -1, ptr %10, align 4, !tbaa !10
  br label %197

46:                                               ; No predecessors!
  br label %47

47:                                               ; preds = %46
  br label %48

48:                                               ; preds = %47
  br label %49

49:                                               ; preds = %48
  br label %50

50:                                               ; preds = %49, %28
  %51 = load ptr, ptr %6, align 8, !tbaa !240
  %52 = getelementptr inbounds nuw %struct.H5O_layout_chunk_t, ptr %51, i32 0, i32 6
  store i64 1, ptr %52, align 8, !tbaa !241
  %53 = load ptr, ptr %6, align 8, !tbaa !240
  %54 = getelementptr inbounds nuw %struct.H5O_layout_chunk_t, ptr %53, i32 0, i32 7
  store i64 1, ptr %54, align 8, !tbaa !242
  call void @llvm.lifetime.start.p0(i64 4, ptr %12) #10
  store i32 0, ptr %12, align 4, !tbaa !10
  br label %55

55:                                               ; preds = %177, %50
  %56 = load i32, ptr %12, align 4, !tbaa !10
  %57 = load i32, ptr %7, align 4, !tbaa !10
  %58 = icmp ult i32 %56, %57
  br i1 %58, label %60, label %59

59:                                               ; preds = %55
  store i32 11, ptr %13, align 4
  br label %180

60:                                               ; preds = %55
  %61 = load ptr, ptr %8, align 8, !tbaa !152
  %62 = load i32, ptr %12, align 4, !tbaa !10
  %63 = zext i32 %62 to i64
  %64 = getelementptr inbounds nuw i64, ptr %61, i64 %63
  %65 = load i64, ptr %64, align 8, !tbaa !24
  %66 = load ptr, ptr %6, align 8, !tbaa !240
  %67 = getelementptr inbounds nuw %struct.H5O_layout_chunk_t, ptr %66, i32 0, i32 3
  %68 = load i32, ptr %12, align 4, !tbaa !10
  %69 = zext i32 %68 to i64
  %70 = getelementptr inbounds nuw [33 x i32], ptr %67, i64 0, i64 %69
  %71 = load i32, ptr %70, align 4, !tbaa !10
  %72 = zext i32 %71 to i64
  %73 = add i64 %65, %72
  %74 = sub i64 %73, 1
  %75 = load ptr, ptr %6, align 8, !tbaa !240
  %76 = getelementptr inbounds nuw %struct.H5O_layout_chunk_t, ptr %75, i32 0, i32 3
  %77 = load i32, ptr %12, align 4, !tbaa !10
  %78 = zext i32 %77 to i64
  %79 = getelementptr inbounds nuw [33 x i32], ptr %76, i64 0, i64 %78
  %80 = load i32, ptr %79, align 4, !tbaa !10
  %81 = zext i32 %80 to i64
  %82 = udiv i64 %74, %81
  %83 = load ptr, ptr %6, align 8, !tbaa !240
  %84 = getelementptr inbounds nuw %struct.H5O_layout_chunk_t, ptr %83, i32 0, i32 8
  %85 = load i32, ptr %12, align 4, !tbaa !10
  %86 = zext i32 %85 to i64
  %87 = getelementptr inbounds nuw [33 x i64], ptr %84, i64 0, i64 %86
  store i64 %82, ptr %87, align 8, !tbaa !24
  %88 = load ptr, ptr %9, align 8, !tbaa !152
  %89 = load i32, ptr %12, align 4, !tbaa !10
  %90 = zext i32 %89 to i64
  %91 = getelementptr inbounds nuw i64, ptr %88, i64 %90
  %92 = load i64, ptr %91, align 8, !tbaa !24
  %93 = icmp eq i64 -1, %92
  br i1 %93, label %94, label %100

94:                                               ; preds = %60
  %95 = load ptr, ptr %6, align 8, !tbaa !240
  %96 = getelementptr inbounds nuw %struct.H5O_layout_chunk_t, ptr %95, i32 0, i32 9
  %97 = load i32, ptr %12, align 4, !tbaa !10
  %98 = zext i32 %97 to i64
  %99 = getelementptr inbounds nuw [33 x i64], ptr %96, i64 0, i64 %98
  store i64 -1, ptr %99, align 8, !tbaa !24
  br label %156

100:                                              ; preds = %60
  %101 = load ptr, ptr %6, align 8, !tbaa !240
  %102 = getelementptr inbounds nuw %struct.H5O_layout_chunk_t, ptr %101, i32 0, i32 3
  %103 = load i32, ptr %12, align 4, !tbaa !10
  %104 = zext i32 %103 to i64
  %105 = getelementptr inbounds nuw [33 x i32], ptr %102, i64 0, i64 %104
  %106 = load i32, ptr %105, align 4, !tbaa !10
  %107 = icmp eq i32 %106, 0
  br i1 %107, label %108, label %128

108:                                              ; preds = %100
  br label %109

109:                                              ; preds = %108
  br label %110

110:                                              ; preds = %109
  br label %111

111:                                              ; preds = %110
  %112 = load i64, ptr @H5E_DATASET_g, align 8, !tbaa !24
  %113 = load i64, ptr @H5E_BADVALUE_g, align 8, !tbaa !24
  %114 = load i32, ptr %12, align 4, !tbaa !10
  %115 = call i32 (ptr, ptr, i32, i64, i64, ptr, ...) @H5E_printf_stack(ptr noundef @.str.1, ptr noundef @__func__.H5D__chunk_set_info_real, i32 noundef 694, i64 noundef %112, i64 noundef %113, ptr noundef @.str.79, i32 noundef %114)
  br label %116

116:                                              ; preds = %111
  br label %117

117:                                              ; preds = %116
  store i8 1, ptr %11, align 1, !tbaa !12
  %118 = load i8, ptr %11, align 1, !tbaa !12, !range !14, !noundef !15
  %119 = trunc i8 %118 to i1
  %120 = zext i1 %119 to i8
  store i8 %120, ptr %11, align 1, !tbaa !12
  br label %121

121:                                              ; preds = %117
  br label %122

122:                                              ; preds = %121
  br label %123

123:                                              ; preds = %122
  store i32 -1, ptr %10, align 4, !tbaa !10
  store i32 10, ptr %13, align 4
  br label %180

124:                                              ; No predecessors!
  br label %125

125:                                              ; preds = %124
  br label %126

126:                                              ; preds = %125
  br label %127

127:                                              ; preds = %126
  br label %128

128:                                              ; preds = %127, %100
  %129 = load ptr, ptr %9, align 8, !tbaa !152
  %130 = load i32, ptr %12, align 4, !tbaa !10
  %131 = zext i32 %130 to i64
  %132 = getelementptr inbounds nuw i64, ptr %129, i64 %131
  %133 = load i64, ptr %132, align 8, !tbaa !24
  %134 = load ptr, ptr %6, align 8, !tbaa !240
  %135 = getelementptr inbounds nuw %struct.H5O_layout_chunk_t, ptr %134, i32 0, i32 3
  %136 = load i32, ptr %12, align 4, !tbaa !10
  %137 = zext i32 %136 to i64
  %138 = getelementptr inbounds nuw [33 x i32], ptr %135, i64 0, i64 %137
  %139 = load i32, ptr %138, align 4, !tbaa !10
  %140 = zext i32 %139 to i64
  %141 = add i64 %133, %140
  %142 = sub i64 %141, 1
  %143 = load ptr, ptr %6, align 8, !tbaa !240
  %144 = getelementptr inbounds nuw %struct.H5O_layout_chunk_t, ptr %143, i32 0, i32 3
  %145 = load i32, ptr %12, align 4, !tbaa !10
  %146 = zext i32 %145 to i64
  %147 = getelementptr inbounds nuw [33 x i32], ptr %144, i64 0, i64 %146
  %148 = load i32, ptr %147, align 4, !tbaa !10
  %149 = zext i32 %148 to i64
  %150 = udiv i64 %142, %149
  %151 = load ptr, ptr %6, align 8, !tbaa !240
  %152 = getelementptr inbounds nuw %struct.H5O_layout_chunk_t, ptr %151, i32 0, i32 9
  %153 = load i32, ptr %12, align 4, !tbaa !10
  %154 = zext i32 %153 to i64
  %155 = getelementptr inbounds nuw [33 x i64], ptr %152, i64 0, i64 %154
  store i64 %150, ptr %155, align 8, !tbaa !24
  br label %156

156:                                              ; preds = %128, %94
  %157 = load ptr, ptr %6, align 8, !tbaa !240
  %158 = getelementptr inbounds nuw %struct.H5O_layout_chunk_t, ptr %157, i32 0, i32 8
  %159 = load i32, ptr %12, align 4, !tbaa !10
  %160 = zext i32 %159 to i64
  %161 = getelementptr inbounds nuw [33 x i64], ptr %158, i64 0, i64 %160
  %162 = load i64, ptr %161, align 8, !tbaa !24
  %163 = load ptr, ptr %6, align 8, !tbaa !240
  %164 = getelementptr inbounds nuw %struct.H5O_layout_chunk_t, ptr %163, i32 0, i32 6
  %165 = load i64, ptr %164, align 8, !tbaa !241
  %166 = mul i64 %165, %162
  store i64 %166, ptr %164, align 8, !tbaa !241
  %167 = load ptr, ptr %6, align 8, !tbaa !240
  %168 = getelementptr inbounds nuw %struct.H5O_layout_chunk_t, ptr %167, i32 0, i32 9
  %169 = load i32, ptr %12, align 4, !tbaa !10
  %170 = zext i32 %169 to i64
  %171 = getelementptr inbounds nuw [33 x i64], ptr %168, i64 0, i64 %170
  %172 = load i64, ptr %171, align 8, !tbaa !24
  %173 = load ptr, ptr %6, align 8, !tbaa !240
  %174 = getelementptr inbounds nuw %struct.H5O_layout_chunk_t, ptr %173, i32 0, i32 7
  %175 = load i64, ptr %174, align 8, !tbaa !242
  %176 = mul i64 %175, %172
  store i64 %176, ptr %174, align 8, !tbaa !242
  br label %177

177:                                              ; preds = %156
  %178 = load i32, ptr %12, align 4, !tbaa !10
  %179 = add i32 %178, 1
  store i32 %179, ptr %12, align 4, !tbaa !10
  br label %55, !llvm.loop !243

180:                                              ; preds = %123, %59
  call void @llvm.lifetime.end.p0(i64 4, ptr %12) #10
  %181 = load i32, ptr %13, align 4
  switch i32 %181, label %200 [
    i32 11, label %182
    i32 10, label %197
  ]

182:                                              ; preds = %180
  %183 = load i32, ptr %7, align 4, !tbaa !10
  %184 = load ptr, ptr %6, align 8, !tbaa !240
  %185 = getelementptr inbounds nuw %struct.H5O_layout_chunk_t, ptr %184, i32 0, i32 8
  %186 = getelementptr inbounds [33 x i64], ptr %185, i64 0, i64 0
  %187 = load ptr, ptr %6, align 8, !tbaa !240
  %188 = getelementptr inbounds nuw %struct.H5O_layout_chunk_t, ptr %187, i32 0, i32 10
  %189 = getelementptr inbounds [33 x i64], ptr %188, i64 0, i64 0
  call void @H5VM_array_down(i32 noundef %183, ptr noundef %186, ptr noundef %189)
  %190 = load i32, ptr %7, align 4, !tbaa !10
  %191 = load ptr, ptr %6, align 8, !tbaa !240
  %192 = getelementptr inbounds nuw %struct.H5O_layout_chunk_t, ptr %191, i32 0, i32 9
  %193 = getelementptr inbounds [33 x i64], ptr %192, i64 0, i64 0
  %194 = load ptr, ptr %6, align 8, !tbaa !240
  %195 = getelementptr inbounds nuw %struct.H5O_layout_chunk_t, ptr %194, i32 0, i32 11
  %196 = getelementptr inbounds [33 x i64], ptr %195, i64 0, i64 0
  call void @H5VM_array_down(i32 noundef %190, ptr noundef %193, ptr noundef %196)
  br label %197

197:                                              ; preds = %182, %180, %45
  br label %198

198:                                              ; preds = %197, %20
  %199 = load i32, ptr %10, align 4, !tbaa !10
  store i32 %199, ptr %5, align 4
  store i32 1, ptr %13, align 4
  br label %200

200:                                              ; preds = %198, %180
  call void @llvm.lifetime.end.p0(i64 1, ptr %11) #10
  call void @llvm.lifetime.end.p0(i64 4, ptr %10) #10
  %201 = load i32, ptr %5, align 4
  ret i32 %201
}