; Function Attrs: nounwind uwtable
define internal fastcc range(i32 -1, 1) i32 @H5D__chunk_set_info_real(ptr noundef %0, i32 noundef %1, ptr noundef readonly captures(none) %2, ptr noundef readonly captures(none) %3) unnamed_addr #0 {
  %5 = load i8, ptr @H5D_init_g, align 1, !tbaa !3, !range !7, !noundef !8
  %6 = trunc nuw i8 %5 to i1
  %7 = load i8, ptr @H5_libterm_g, align 1, !range !7
  %8 = trunc nuw i8 %7 to i1
  %9 = xor i1 %8, true
  %10 = select i1 %6, i1 true, i1 %9
  br i1 %10, label %11, label %55, !prof !9

11:                                               ; preds = %4
  %12 = icmp eq i32 %1, 0
  br i1 %12, label %13, label %17

13:                                               ; preds = %11
  %14 = load i64, ptr @H5E_DATASET_g, align 8, !tbaa !21
  %15 = load i64, ptr @H5E_BADVALUE_g, align 8, !tbaa !21
  %16 = tail call i32 (ptr, ptr, i32, i64, i64, ptr, ...) @H5E_printf_stack(ptr noundef nonnull @.str.1, ptr noundef nonnull @__func__.H5D__chunk_set_info_real, i32 noundef 681, i64 noundef %14, i64 noundef %15, ptr noundef nonnull @.str.78) #15
  br label %55

17:                                               ; preds = %11
  %18 = getelementptr inbounds nuw i8, ptr %0, i64 152
  store i64 1, ptr %18, align 8, !tbaa !243
  %19 = getelementptr inbounds nuw i8, ptr %0, i64 160
  store i64 1, ptr %19, align 8, !tbaa !244
  %20 = getelementptr inbounds nuw i8, ptr %0, i64 12
  %21 = getelementptr inbounds nuw i8, ptr %0, i64 168
  %22 = getelementptr inbounds nuw i8, ptr %0, i64 432
  %wide.trip.count = zext i32 %1 to i64
  br label %23

23:                                               ; preds = %17, %43
  %24 = phi i64 [ 1, %17 ], [ %46, %43 ]
  %25 = phi i64 [ 1, %17 ], [ %45, %43 ]
  %indvars.iv = phi i64 [ 0, %17 ], [ %indvars.iv.next, %43 ]
  %26 = getelementptr inbounds nuw i64, ptr %2, i64 %indvars.iv
  %27 = load i64, ptr %26, align 8, !tbaa !21
  %28 = getelementptr inbounds nuw [33 x i32], ptr %20, i64 0, i64 %indvars.iv
  %29 = load i32, ptr %28, align 4, !tbaa !62
  %30 = zext i32 %29 to i64
  %31 = add nsw i64 %30, -1
  %32 = add i64 %31, %27
  %33 = udiv i64 %32, %30
  %34 = getelementptr inbounds nuw [33 x i64], ptr %21, i64 0, i64 %indvars.iv
  store i64 %33, ptr %34, align 8, !tbaa !21
  %35 = getelementptr inbounds nuw i64, ptr %3, i64 %indvars.iv
  %36 = load i64, ptr %35, align 8, !tbaa !21
  %37 = icmp eq i64 %36, -1
  br i1 %37, label %43, label %38

38:                                               ; preds = %23
  %39 = icmp eq i32 %29, 0
  br i1 %39, label %47, label %40

40:                                               ; preds = %38
  %41 = add i64 %31, %36
  %42 = udiv i64 %41, %30
  br label %43

43:                                               ; preds = %23, %40
  %.sink = phi i64 [ %42, %40 ], [ -1, %23 ]
  %44 = getelementptr inbounds nuw [33 x i64], ptr %22, i64 0, i64 %indvars.iv
  store i64 %.sink, ptr %44, align 8, !tbaa !21
  %45 = mul i64 %25, %33
  store i64 %45, ptr %18, align 8, !tbaa !243
  %46 = mul i64 %24, %.sink
  store i64 %46, ptr %19, align 8, !tbaa !244
  %indvars.iv.next = add nuw nsw i64 %indvars.iv, 1
  %exitcond.not = icmp eq i64 %indvars.iv.next, %wide.trip.count
  br i1 %exitcond.not, label %52, label %23, !llvm.loop !245

47:                                               ; preds = %38
  %48 = trunc nuw i64 %indvars.iv to i32
  %49 = load i64, ptr @H5E_DATASET_g, align 8, !tbaa !21
  %50 = load i64, ptr @H5E_BADVALUE_g, align 8, !tbaa !21
  %51 = tail call i32 (ptr, ptr, i32, i64, i64, ptr, ...) @H5E_printf_stack(ptr noundef nonnull @.str.1, ptr noundef nonnull @__func__.H5D__chunk_set_info_real, i32 noundef 694, i64 noundef %49, i64 noundef %50, ptr noundef nonnull @.str.79, i32 noundef %48) #15
  br label %55

52:                                               ; preds = %43
  %53 = getelementptr inbounds nuw i8, ptr %0, i64 696
  tail call void @H5VM_array_down(i32 noundef %1, ptr noundef nonnull %21, ptr noundef nonnull %53) #15
  %54 = getelementptr inbounds nuw i8, ptr %0, i64 960
  tail call void @H5VM_array_down(i32 noundef %1, ptr noundef nonnull %22, ptr noundef nonnull %54) #15
  br label %55

55:                                               ; preds = %47, %4, %52, %13
  %.046 = phi i32 [ -1, %13 ], [ -1, %47 ], [ 0, %52 ], [ 0, %4 ]
  ret i32 %.046
}